target datalayout = "e-m:e-p270:32:32-p271:32:32-p272:64:64-i64:64-i128:128-f80:128-n8:16:32:64-S128"
target triple = "x86_64-pc-linux-gnu"

%struct.Vec_Int_t_ = type { i32, i32, ptr }
%struct.Bmc_AndPar_t_ = type { i32, i32, i32, i32, i32, i32, i32, i32, i32, i32, i32, i32, i32, i32, i32, i32, i32, i32, i32, ptr }
%struct.Bmcs_Man_t_ = type { ptr, ptr, ptr, ptr, %struct.Vec_Ptr_t_, %struct.Vec_Int_t_, %struct.Vec_Int_t_, [100 x ptr], i32, i32, i32, i64, i64, i64, i64 }
%struct.Vec_Ptr_t_ = type { i32, i32, ptr }

; Function Attrs: nounwind uwtable
define internal ptr @Vec_PtrEntry(ptr noundef %0, i32 noundef %1) #0 {
  %3 = alloca ptr, align 8
  %4 = alloca i32, align 4
  store ptr %0, ptr %3, align 8
  store i32 %1, ptr %4, align 4
  %5 = load ptr, ptr %3, align 8
  %6 = getelementptr inbounds %struct.Vec_Ptr_t_, ptr %5, i32 0, i32 2
  %7 = load ptr, ptr %6, align 8
  %8 = load i32, ptr %4, align 4
  %9 = sext i32 %8 to i64
  %10 = getelementptr inbounds ptr, ptr %7, i64 %9
  %11 = load ptr, ptr %10, align 8
  ret ptr %11
}

; Function Attrs: nounwind uwtable
define internal i32 @Vec_PtrSize(ptr noundef %0) #0 {
  %2 = alloca ptr, align 8
  store ptr %0, ptr %2, align 8
  %3 = load ptr, ptr %2, align 8
  %4 = getelementptr inbounds %struct.Vec_Ptr_t_, ptr %3, i32 0, i32 1
  %5 = load i32, ptr %4, align 4
  ret i32 %5
}

; Function Attrs: nounwind uwtable
define internal void @Vec_IntErase(ptr noundef %0) #0 {
  %2 = alloca ptr, align 8
  store ptr %0, ptr %2, align 8
  %3 = load ptr, ptr %2, align 8
  %4 = getelementptr inbounds %struct.Vec_Int_t_, ptr %3, i32 0, i32 2
  %5 = load ptr, ptr %4, align 8
  %6 = icmp ne ptr %5, null
  br i1 %6, label %7, label %13

7:                                                ; preds = %1
  %8 = load ptr, ptr %2, align 8
  %9 = getelementptr inbounds %struct.Vec_Int_t_, ptr %8, i32 0, i32 2
  %10 = load ptr, ptr %9, align 8
  call void @free(ptr noundef %10) #14
  %11 = load ptr, ptr %2, align 8
  %12 = getelementptr inbounds %struct.Vec_Int_t_, ptr %11, i32 0, i32 2
  store ptr null, ptr %12, align 8
  br label %14

13:                                               ; preds = %1
  br label %14

14:                                               ; preds = %13, %7
  %15 = load ptr, ptr %2, align 8
  %16 = getelementptr inbounds %struct.Vec_Int_t_, ptr %15, i32 0, i32 1
  store i32 0, ptr %16, align 4
  %17 = load ptr, ptr %2, align 8
  %18 = getelementptr inbounds %struct.Vec_Int_t_, ptr %17, i32 0, i32 0
  store i32 0, ptr %18, align 8
  ret void
}

; Function Attrs: nounwind uwtable
define internal void @Vec_PtrErase(ptr noundef %0) #0 {
  %2 = alloca ptr, align 8
  store ptr %0, ptr %2, align 8
  %3 = load ptr, ptr %2, align 8
  %4 = getelementptr inbounds %struct.Vec_Ptr_t_, ptr %3, i32 0, i32 2
  %5 = load ptr, ptr %4, align 8
  %6 = icmp ne ptr %5, null
  br i1 %6, label %7, label %13

7:                                                ; preds = %1
  %8 = load ptr, ptr %2, align 8
  %9 = getelementptr inbounds %struct.Vec_Ptr_t_, ptr %8, i32 0, i32 2
  %10 = load ptr, ptr %9, align 8
  call void @free(ptr noundef %10) #14
  %11 = load ptr, ptr %2, align 8
  %12 = getelementptr inbounds %struct.Vec_Ptr_t_, ptr %11, i32 0, i32 2
  store ptr null, ptr %12, align 8
  br label %14

13:                                               ; preds = %1
  br label %14

14:                                               ; preds = %13, %7
  %15 = load ptr, ptr %2, align 8
  %16 = getelementptr inbounds %struct.Vec_Ptr_t_, ptr %15, i32 0, i32 1
  store i32 0, ptr %16, align 4
  %17 = load ptr, ptr %2, align 8
  %18 = getelementptr inbounds %struct.Vec_Ptr_t_, ptr %17, i32 0, i32 0
  store i32 0, ptr %18, align 8
  ret void
}

; Function Attrs: nounwind uwtable
define internal void @Vec_PtrFreeData(ptr noundef %0) #0 {
  %2 = alloca ptr, align 8
  %3 = alloca ptr, align 8
  %4 = alloca i32, align 4
  store ptr %0, ptr %2, align 8
  %5 = load ptr, ptr %2, align 8
  %6 = icmp eq ptr %5, null
  br i1 %6, label %7, label %8

7:                                                ; preds = %1
  br label %39

8:                                                ; preds = %1
  store i32 0, ptr %4, align 4
  br label %9

9:                                                ; preds = %36, %8
  %10 = load i32, ptr %4, align 4
  %11 = load ptr, ptr %2, align 8
  %12 = call i32 @Vec_PtrSize(ptr noundef %11)
  %13 = icmp slt i32 %10, %12
  br i1 %13, label %14, label %18

14:                                               ; preds = %9
  %15 = load ptr, ptr %2, align 8
  %16 = load i32, ptr %4, align 4
  %17 = call ptr @Vec_PtrEntry(ptr noundef %15, i32 noundef %16)
  store ptr %17, ptr %3, align 8
  br label %18

18:                                               ; preds = %14, %9
  %19 = phi i1 [ false, %9 ], [ true, %14 ]
  br i1 %19, label %20, label %39

20:                                               ; preds = %18
  %21 = load ptr, ptr %3, align 8
  %22 = inttoptr i64 1 to ptr
  %23 = icmp ne ptr %21, %22
  br i1 %23, label %24, label %35

24:                                               ; preds = %20
  %25 = load ptr, ptr %3, align 8
  %26 = inttoptr i64 2 to ptr
  %27 = icmp ne ptr %25, %26
  br i1 %27, label %28, label %35

28:                                               ; preds = %24
  %29 = load ptr, ptr %3, align 8
  %30 = icmp ne ptr %29, null
  br i1 %30, label %31, label %33

31:                                               ; preds = %28
  %32 = load ptr, ptr %3, align 8
  call void @free(ptr noundef %32) #14
  store ptr null, ptr %3, align 8
  br label %34

33:                                               ; preds = %28
  br label %34

34:                                               ; preds = %33, %31
  br label %35

35:                                               ; preds = %34, %24, %20
  br label %36

36:                                               ; preds = %35
  %37 = load i32, ptr %4, align 4
  %38 = add nsw i32 %37, 1
  store i32 %38, ptr %4, align 4
  br label %9, !llvm.loop !26

39:                                               ; preds = %18, %7
  ret void
}

; Function Attrs: nounwind uwtable
define void @Bmcs_ManStop(ptr noundef %0) #0 {
  %2 = alloca ptr, align 8
  %3 = alloca i32, align 4
  store ptr %0, ptr %2, align 8
  %4 = load ptr, ptr %2, align 8
  %5 = getelementptr inbounds %struct.Bmcs_Man_t_, ptr %4, i32 0, i32 2
  call void @Gia_ManStopP(ptr noundef %5)
  %6 = load ptr, ptr %2, align 8
  %7 = getelementptr inbounds %struct.Bmcs_Man_t_, ptr %6, i32 0, i32 3
  call void @Gia_ManStopP(ptr noundef %7)
  %8 = load ptr, ptr %2, align 8
  %9 = getelementptr inbounds %struct.Bmcs_Man_t_, ptr %8, i32 0, i32 4
  call void @Vec_PtrFreeData(ptr noundef %9)
  %10 = load ptr, ptr %2, align 8
  %11 = getelementptr inbounds %struct.Bmcs_Man_t_, ptr %10, i32 0, i32 4
  call void @Vec_PtrErase(ptr noundef %11)
  %12 = load ptr, ptr %2, align 8
  %13 = getelementptr inbounds %struct.Bmcs_Man_t_, ptr %12, i32 0, i32 5
  call void @Vec_IntErase(ptr noundef %13)
  %14 = load ptr, ptr %2, align 8
  %15 = getelementptr inbounds %struct.Bmcs_Man_t_, ptr %14, i32 0, i32 6
  call void @Vec_IntErase(ptr noundef %15)
  store i32 0, ptr %3, align 4
  br label %16

16:                                               ; preds = %40, %1
  %17 = load i32, ptr %3, align 4
  %18 = load ptr, ptr %2, align 8
  %19 = getelementptr inbounds %struct.Bmcs_Man_t_, ptr %18, i32 0, i32 0
  %20 = load ptr, ptr %19, align 8
  %21 = getelementptr inbounds %struct.Bmc_AndPar_t_, ptr %20, i32 0, i32 6
  %22 = load i32, ptr %21, align 8
  %23 = icmp slt i32 %17, %22
  br i1 %23, label %24, label %43

24:                                               ; preds = %16
  %25 = load ptr, ptr %2, align 8
  %26 = getelementptr inbounds %struct.Bmcs_Man_t_, ptr %25, i32 0, i32 7
  %27 = load i32, ptr %3, align 4
  %28 = sext i32 %27 to i64
  %29 = getelementptr inbounds [100 x ptr], ptr %26, i64 0, i64 %28
  %30 = load ptr, ptr %29, align 8
  %31 = icmp ne ptr %30, null
  br i1 %31, label %32, label %39

32:                                               ; preds = %24
  %33 = load ptr, ptr %2, align 8
  %34 = getelementptr inbounds %struct.Bmcs_Man_t_, ptr %33, i32 0, i32 7
  %35 = load i32, ptr %3, align 4
  %36 = sext i32 %35 to i64
  %37 = getelementptr inbounds [100 x ptr], ptr %34, i64 0, i64 %36
  %38 = load ptr, ptr %37, align 8
  call void @satoko_destroy(ptr noundef %38)
  br label %39

39:                                               ; preds = %32, %24
  br label %40

40:                                               ; preds = %39
  %41 = load i32, ptr %3, align 4
  %42 = add nsw i32 %41, 1
  store i32 %42, ptr %3, align 4
  br label %16, !llvm.loop !25

43:                                               ; preds = %16
  %44 = load ptr, ptr %2, align 8
  %45 = icmp ne ptr %44, null
  br i1 %45, label %46, label %48

46:                                               ; preds = %43
  %47 = load ptr, ptr %2, align 8
  call void @free(ptr noundef %47) #14
  store ptr null, ptr %2, align 8
  br label %49

48:                                               ; preds = %43
  br label %49

49:                                               ; preds = %48, %46
  ret void
}