; Function Attrs: nounwind uwtable
define void @Bmcs_ManStop(ptr noundef %0) local_unnamed_addr #0 {
  %2 = getelementptr inbounds nuw i8, ptr %0, i64 16
  tail call void @Gia_ManStopP(ptr noundef nonnull %2) #23
  %3 = getelementptr inbounds nuw i8, ptr %0, i64 24
  tail call void @Gia_ManStopP(ptr noundef nonnull %3) #23
  %4 = getelementptr inbounds nuw i8, ptr %0, i64 32
  %5 = getelementptr i8, ptr %0, i64 36
  %.val16.i = load i32, ptr %5, align 4
  %6 = icmp sgt i32 %.val16.i, 0
  br i1 %6, label %.lr.ph.i, label %Vec_PtrFreeData.exit

.lr.ph.i:                                         ; preds = %1
  %7 = getelementptr i8, ptr %0, i64 40
  br label %8

8:                                                ; preds = %12, %.lr.ph.i
  %.val19.i = phi i32 [ %.val16.i, %.lr.ph.i ], [ %.val.i, %12 ]
  %indvars.iv.i = phi i64 [ 0, %.lr.ph.i ], [ %indvars.iv.next.i, %12 ]
  %.val15.i = load ptr, ptr %7, align 8
  %9 = getelementptr inbounds nuw ptr, ptr %.val15.i, i64 %indvars.iv.i
  %10 = load ptr, ptr %9, align 8
  %switch.i = icmp ult ptr %10, inttoptr (i64 3 to ptr)
  br i1 %switch.i, label %12, label %11

11:                                               ; preds = %8
  tail call void @free(ptr noundef %10) #23
  %.val.pre.i = load i32, ptr %5, align 4
  br label %12

12:                                               ; preds = %11, %8
  %.val.i = phi i32 [ %.val19.i, %8 ], [ %.val.pre.i, %11 ]
  %indvars.iv.next.i = add nuw nsw i64 %indvars.iv.i, 1
  %13 = sext i32 %.val.i to i64
  %14 = icmp slt i64 %indvars.iv.next.i, %13
  br i1 %14, label %8, label %Vec_PtrFreeData.exit, !llvm.loop !25

Vec_PtrFreeData.exit:                             ; preds = %12, %1
  %15 = getelementptr inbounds nuw i8, ptr %0, i64 40
  %16 = load ptr, ptr %15, align 8
  %.not.i = icmp eq ptr %16, null
  br i1 %.not.i, label %Vec_PtrErase.exit, label %17

17:                                               ; preds = %Vec_PtrFreeData.exit
  tail call void @free(ptr noundef nonnull %16) #23
  store ptr null, ptr %15, align 8
  br label %Vec_PtrErase.exit

Vec_PtrErase.exit:                                ; preds = %Vec_PtrFreeData.exit, %17
  store i32 0, ptr %5, align 4
  store i32 0, ptr %4, align 8
  %18 = getelementptr inbounds nuw i8, ptr %0, i64 48
  %19 = getelementptr inbounds nuw i8, ptr %0, i64 56
  %20 = load ptr, ptr %19, align 8
  %.not.i15 = icmp eq ptr %20, null
  br i1 %.not.i15, label %Vec_IntErase.exit, label %21

21:                                               ; preds = %Vec_PtrErase.exit
  tail call void @free(ptr noundef nonnull %20) #23
  store ptr null, ptr %19, align 8
  br label %Vec_IntErase.exit

Vec_IntErase.exit:                                ; preds = %Vec_PtrErase.exit, %21
  %22 = getelementptr inbounds nuw i8, ptr %0, i64 52
  store i32 0, ptr %22, align 4
  store i32 0, ptr %18, align 8
  %23 = getelementptr inbounds nuw i8, ptr %0, i64 64
  %24 = getelementptr inbounds nuw i8, ptr %0, i64 72
  %25 = load ptr, ptr %24, align 8
  %.not.i16 = icmp eq ptr %25, null
  br i1 %.not.i16, label %Vec_IntErase.exit17, label %26

26:                                               ; preds = %Vec_IntErase.exit
  tail call void @free(ptr noundef nonnull %25) #23
  store ptr null, ptr %24, align 8
  br label %Vec_IntErase.exit17

Vec_IntErase.exit17:                              ; preds = %Vec_IntErase.exit, %26
  %27 = getelementptr inbounds nuw i8, ptr %0, i64 68
  store i32 0, ptr %27, align 4
  store i32 0, ptr %23, align 8
  %28 = load ptr, ptr %0, align 8
  %29 = getelementptr inbounds nuw i8, ptr %28, i64 24
  %30 = load i32, ptr %29, align 8
  %31 = icmp sgt i32 %30, 0
  br i1 %31, label %.lr.ph, label %._crit_edge

.lr.ph:                                           ; preds = %Vec_IntErase.exit17
  %32 = getelementptr inbounds nuw i8, ptr %0, i64 80
  br label %33

33:                                               ; preds = %.lr.ph, %38
  %34 = phi ptr [ %28, %.lr.ph ], [ %39, %38 ]
  %indvars.iv = phi i64 [ 0, %.lr.ph ], [ %indvars.iv.next, %38 ]
  %35 = getelementptr inbounds nuw [100 x ptr], ptr %32, i64 0, i64 %indvars.iv
  %36 = load ptr, ptr %35, align 8
  %.not = icmp eq ptr %36, null
  br i1 %.not, label %38, label %37

37:                                               ; preds = %33
  tail call void @satoko_destroy(ptr noundef nonnull %36) #23
  %.pre = load ptr, ptr %0, align 8
  br label %38

38:                                               ; preds = %33, %37
  %39 = phi ptr [ %34, %33 ], [ %.pre, %37 ]
  %indvars.iv.next = add nuw nsw i64 %indvars.iv, 1
  %40 = getelementptr inbounds nuw i8, ptr %39, i64 24
  %41 = load i32, ptr %40, align 8
  %42 = sext i32 %41 to i64
  %43 = icmp slt i64 %indvars.iv.next, %42
  br i1 %43, label %33, label %._crit_edge, !llvm.loop !26

._crit_edge:                                      ; preds = %38, %Vec_IntErase.exit17
  tail call void @free(ptr noundef nonnull %0) #23
  ret void
}